target datalayout = "e-m:e-p270:32:32-p271:32:32-p272:64:64-i64:64-i128:128-f80:128-n8:16:32:64-S128"
target triple = "x86_64-pc-linux-gnu"

%"struct.icu_77::number::impl::MicroProps" = type <{ %"class.icu_77::number::impl::MicroPropsGenerator", %"struct.icu_77::number::impl::SimpleMicroProps", %"class.icu_77::number::impl::RoundingImpl", %"class.icu_77::number::impl::Padder", %"class.icu_77::number::IntegerWidth", i32, [9 x i8], [3 x i8], ptr, ptr, ptr, ptr, %struct.anon.5, %"class.icu_77::MeasureUnit", %"class.icu_77::number::impl::IntMeasures", i32, i32, i8, [7 x i8] }>
%"class.icu_77::number::impl::MicroPropsGenerator" = type { ptr }
%"struct.icu_77::number::impl::SimpleMicroProps" = type { [4 x i8], %"class.icu_77::number::impl::Grouper", i8, i32, %"class.icu_77::UnicodeString", ptr }
%"class.icu_77::number::impl::Grouper" = type { i16, i16, i16, i32 }
%"class.icu_77::UnicodeString" = type { %"class.icu_77::Replaceable", %"union.icu_77::UnicodeString::StackBufferOrFields" }
%"class.icu_77::Replaceable" = type { %"class.icu_77::UObject" }
%"class.icu_77::UObject" = type { ptr }
%"union.icu_77::UnicodeString::StackBufferOrFields" = type { %struct.anon.1, [32 x i8] }
%struct.anon.1 = type { i16, i32, i32, ptr }
%"class.icu_77::number::impl::RoundingImpl" = type <{ %"class.icu_77::number::Precision", i32, i8, [3 x i8] }>
%"class.icu_77::number::Precision" = type <{ i32, [4 x i8], %"union.icu_77::number::Precision::PrecisionUnion", i32, [4 x i8] }>
%"union.icu_77::number::Precision::PrecisionUnion" = type { %"struct.icu_77::number::Precision::PrecisionUnion::IncrementSettings" }
%"struct.icu_77::number::Precision::PrecisionUnion::IncrementSettings" = type { i64, i16, i16 }
%"class.icu_77::number::impl::Padder" = type { i32, %union.anon }
%union.anon = type { %struct.anon.2 }
%struct.anon.2 = type { i32, i32 }
%"class.icu_77::number::IntegerWidth" = type <{ %union.anon.3, i8, [3 x i8] }>
%union.anon.3 = type { i32, [4 x i8] }
%struct.anon.5 = type { %"class.icu_77::number::impl::ScientificModifier", %"class.icu_77::number::impl::EmptyModifier", %"class.icu_77::number::impl::EmptyModifier", %"class.icu_77::number::impl::MultiplierFormatHandler", %"class.icu_77::number::impl::SimpleModifier" }
%"class.icu_77::number::impl::ScientificModifier" = type { %"class.icu_77::number::impl::Modifier", i32, ptr }
%"class.icu_77::number::impl::Modifier" = type { ptr }
%"class.icu_77::number::impl::EmptyModifier" = type <{ %"class.icu_77::number::impl::Modifier", i8, [7 x i8] }>
%"class.icu_77::number::impl::MultiplierFormatHandler" = type { %"class.icu_77::number::impl::MicroPropsGenerator", %"class.icu_77::number::Scale", ptr }
%"class.icu_77::number::Scale" = type <{ i32, [4 x i8], ptr, i32, [4 x i8] }>
%"class.icu_77::number::impl::SimpleModifier" = type { %"class.icu_77::number::impl::Modifier", %"class.icu_77::UnicodeString", %"struct.icu_77::FormattedStringBuilder::Field", i8, i32, i32, i32, %"struct.icu_77::number::impl::Modifier::Parameters" }
%"struct.icu_77::FormattedStringBuilder::Field" = type { i8 }
%"struct.icu_77::number::impl::Modifier::Parameters" = type { ptr, i32, i32 }
%"class.icu_77::MeasureUnit" = type <{ %"class.icu_77::UObject", ptr, i16, i8, [5 x i8] }>
%"class.icu_77::number::impl::IntMeasures" = type <{ %"class.icu_77::MaybeStackArray.6", i32, [4 x i8] }>
%"class.icu_77::MaybeStackArray.6" = type { ptr, i32, i8, [2 x i64] }
%"class.icu_77::MemoryPool" = type { i32, %"class.icu_77::MaybeStackArray.0" }
%"class.icu_77::MaybeStackArray.0" = type { ptr, i32, i8, [8 x ptr] }
%"class.icu_77::Measure" = type { %"class.icu_77::UObject", %"class.icu_77::Formattable", ptr }
%"class.icu_77::Formattable" = type { %"class.icu_77::UObject", %union.anon.7, ptr, ptr, i32, %"class.icu_77::UnicodeString" }
%union.anon.7 = type { %struct.anon.8 }
%struct.anon.8 = type { ptr, i32 }

; Function Attrs: mustprogress nounwind uwtable
define linkonce_odr noundef nonnull align 8 dereferenceable(8) ptr @_ZNK6icu_7715MaybeStackArrayIPNS_7MeasureELi8EEixEl(ptr noundef nonnull align 8 dereferenceable(80) %0, i64 noundef %1) #0 comdat align 2 {
  %3 = alloca ptr, align 8
  %4 = alloca i64, align 8
  store ptr %0, ptr %3, align 8, !tbaa !183
  store i64 %1, ptr %4, align 8, !tbaa !18
  %5 = load ptr, ptr %3, align 8
  %6 = getelementptr inbounds nuw %"class.icu_77::MaybeStackArray.0", ptr %5, i32 0, i32 0
  %7 = load ptr, ptr %6, align 8, !tbaa !185
  %8 = load i64, ptr %4, align 8, !tbaa !18
  %9 = getelementptr inbounds ptr, ptr %7, i64 %8
  ret ptr %9
}

; Function Attrs: mustprogress uwtable
define linkonce_odr void @_ZN6icu_7715MaybeStackArrayIlLi2EE12releaseArrayEv(ptr noundef nonnull align 8 dereferenceable(32) %0) #1 comdat align 2 {
  %2 = alloca ptr, align 8
  store ptr %0, ptr %2, align 8, !tbaa !91
  %3 = load ptr, ptr %2, align 8
  %4 = getelementptr inbounds nuw %"class.icu_77::MaybeStackArray.6", ptr %3, i32 0, i32 2
  %5 = load i8, ptr %4, align 4, !tbaa !96
  %6 = icmp ne i8 %5, 0
  br i1 %6, label %7, label %10

7:                                                ; preds = %1
  %8 = getelementptr inbounds nuw %"class.icu_77::MaybeStackArray.6", ptr %3, i32 0, i32 0
  %9 = load ptr, ptr %8, align 8, !tbaa !95
  call void @uprv_free_77(ptr noundef %9)
  br label %10

10:                                               ; preds = %7, %1
  ret void
}

; Function Attrs: inlinehint mustprogress nounwind uwtable
define internal noundef signext i8 @_ZL9U_FAILURE10UErrorCode(i32 noundef %0) #2 {
  %2 = alloca i32, align 4
  store i32 %0, ptr %2, align 4, !tbaa !15
  %3 = load i32, ptr %2, align 4, !tbaa !15
  %4 = icmp sgt i32 %3, 0
  %5 = zext i1 %4 to i8
  ret i8 %5
}

; Function Attrs: mustprogress nounwind uwtable
define linkonce_odr noundef double @_ZNK6icu_7711Formattable9getDoubleEv(ptr noundef nonnull align 8 dereferenceable(112) %0) #0 comdat align 2 {
  %2 = alloca ptr, align 8
  store ptr %0, ptr %2, align 8, !tbaa !99
  %3 = load ptr, ptr %2, align 8
  %4 = getelementptr inbounds nuw %"class.icu_77::Formattable", ptr %3, i32 0, i32 1
  %5 = load double, ptr %4, align 8, !tbaa !30
  ret double %5
}

; Function Attrs: mustprogress nounwind uwtable
define linkonce_odr noundef nonnull align 8 dereferenceable(8) ptr @_ZN6icu_7715MaybeStackArrayIlLi2EEixEl(ptr noundef nonnull align 8 dereferenceable(32) %0, i64 noundef %1) #0 comdat align 2 {
  %3 = alloca ptr, align 8
  %4 = alloca i64, align 8
  store ptr %0, ptr %3, align 8, !tbaa !91
  store i64 %1, ptr %4, align 8, !tbaa !18
  %5 = load ptr, ptr %3, align 8
  %6 = getelementptr inbounds nuw %"class.icu_77::MaybeStackArray.6", ptr %5, i32 0, i32 0
  %7 = load ptr, ptr %6, align 8, !tbaa !95
  %8 = load i64, ptr %4, align 8, !tbaa !18
  %9 = getelementptr inbounds i64, ptr %7, i64 %8
  ret ptr %9
}

; Function Attrs: mustprogress nounwind uwtable
define linkonce_odr noundef i64 @_ZNK6icu_7711Formattable8getInt64Ev(ptr noundef nonnull align 8 dereferenceable(112) %0) #0 comdat align 2 {
  %2 = alloca ptr, align 8
  store ptr %0, ptr %2, align 8, !tbaa !99
  %3 = load ptr, ptr %2, align 8
  %4 = getelementptr inbounds nuw %"class.icu_77::Formattable", ptr %3, i32 0, i32 1
  %5 = load i64, ptr %4, align 8, !tbaa !30
  ret i64 %5
}

; Function Attrs: inlinehint mustprogress nounwind uwtable
define linkonce_odr noundef nonnull align 8 dereferenceable(112) ptr @_ZNK6icu_777Measure9getNumberEv(ptr noundef nonnull align 8 dereferenceable(128) %0) #2 comdat align 2 {
  %2 = alloca ptr, align 8
  store ptr %0, ptr %2, align 8, !tbaa !97
  %3 = load ptr, ptr %2, align 8
  %4 = getelementptr inbounds nuw %"class.icu_77::Measure", ptr %3, i32 0, i32 1
  ret ptr %4
}

; Function Attrs: mustprogress uwtable
define linkonce_odr noundef ptr @_ZNK6icu_7716MaybeStackVectorINS_7MeasureELi8EEixEl(ptr noundef nonnull align 8 dereferenceable(88) %0, i64 noundef %1) #1 comdat align 2 {
  %3 = alloca ptr, align 8
  %4 = alloca i64, align 8
  store ptr %0, ptr %3, align 8, !tbaa !36
  store i64 %1, ptr %4, align 8, !tbaa !18
  %5 = load ptr, ptr %3, align 8
  %6 = getelementptr inbounds nuw %"class.icu_77::MemoryPool", ptr %5, i32 0, i32 1
  %7 = load i64, ptr %4, align 8, !tbaa !18
  %8 = call noundef nonnull align 8 dereferenceable(8) ptr @_ZNK6icu_7715MaybeStackArrayIPNS_7MeasureELi8EEixEl(ptr noundef nonnull align 8 dereferenceable(80) %6, i64 noundef %7)
  %9 = load ptr, ptr %8, align 8, !tbaa !97
  ret ptr %9
}

; Function Attrs: inlinehint mustprogress uwtable
define linkonce_odr noundef ptr @_ZN6icu_7715MaybeStackArrayIlLi2EE6resizeEii(ptr noundef nonnull align 8 dereferenceable(32) %0, i32 noundef %1, i32 noundef %2) #3 comdat align 2 {
  %4 = alloca ptr, align 8
  %5 = alloca ptr, align 8
  %6 = alloca i32, align 4
  %7 = alloca i32, align 4
  %8 = alloca ptr, align 8
  store ptr %0, ptr %5, align 8, !tbaa !91
  store i32 %1, ptr %6, align 4, !tbaa !14
  store i32 %2, ptr %7, align 4, !tbaa !14
  %9 = load ptr, ptr %5, align 8
  %10 = load i32, ptr %6, align 4, !tbaa !14
  %11 = icmp sgt i32 %10, 0
  br i1 %11, label %12, label %54

12:                                               ; preds = %3
  call void @llvm.lifetime.start.p0(i64 8, ptr %8) #12
  %13 = load i32, ptr %6, align 4, !tbaa !14
  %14 = sext i32 %13 to i64
  %15 = mul i64 %14, 8
  %16 = call noalias ptr @uprv_malloc_77(i64 noundef %15) #13
  store ptr %16, ptr %8, align 8, !tbaa !94
  %17 = load ptr, ptr %8, align 8, !tbaa !94
  %18 = icmp ne ptr %17, null
  br i1 %18, label %19, label %52

19:                                               ; preds = %12
  %20 = load i32, ptr %7, align 4, !tbaa !14
  %21 = icmp sgt i32 %20, 0
  br i1 %21, label %22, label %46

22:                                               ; preds = %19
  %23 = load i32, ptr %7, align 4, !tbaa !14
  %24 = getelementptr inbounds nuw %"class.icu_77::MaybeStackArray.6", ptr %9, i32 0, i32 1
  %25 = load i32, ptr %24, align 8, !tbaa !93
  %26 = icmp sgt i32 %23, %25
  br i1 %26, label %27, label %30

27:                                               ; preds = %22
  %28 = getelementptr inbounds nuw %"class.icu_77::MaybeStackArray.6", ptr %9, i32 0, i32 1
  %29 = load i32, ptr %28, align 8, !tbaa !93
  store i32 %29, ptr %7, align 4, !tbaa !14
  br label %30

30:                                               ; preds = %27, %22
  %31 = load i32, ptr %7, align 4, !tbaa !14
  %32 = load i32, ptr %6, align 4, !tbaa !14
  %33 = icmp sgt i32 %31, %32
  br i1 %33, label %34, label %36

34:                                               ; preds = %30
  %35 = load i32, ptr %6, align 4, !tbaa !14
  store i32 %35, ptr %7, align 4, !tbaa !14
  br label %36

36:                                               ; preds = %34, %30
  br label %37

37:                                               ; preds = %36
  %38 = load ptr, ptr %8, align 8, !tbaa !94
  %39 = getelementptr inbounds nuw %"class.icu_77::MaybeStackArray.6", ptr %9, i32 0, i32 0
  %40 = load ptr, ptr %39, align 8, !tbaa !95
  %41 = load i32, ptr %7, align 4, !tbaa !14
  %42 = sext i32 %41 to i64
  %43 = mul i64 %42, 8
  call void @llvm.memcpy.p0.p0.i64(ptr align 8 %38, ptr align 8 %40, i64 %43, i1 false)
  br label %44

44:                                               ; preds = %37
  br label %45

45:                                               ; preds = %44
  br label %46

46:                                               ; preds = %45, %19
  call void @_ZN6icu_7715MaybeStackArrayIlLi2EE12releaseArrayEv(ptr noundef nonnull align 8 dereferenceable(32) %9)
  %47 = load ptr, ptr %8, align 8, !tbaa !94
  %48 = getelementptr inbounds nuw %"class.icu_77::MaybeStackArray.6", ptr %9, i32 0, i32 0
  store ptr %47, ptr %48, align 8, !tbaa !95
  %49 = load i32, ptr %6, align 4, !tbaa !14
  %50 = getelementptr inbounds nuw %"class.icu_77::MaybeStackArray.6", ptr %9, i32 0, i32 1
  store i32 %49, ptr %50, align 8, !tbaa !93
  %51 = getelementptr inbounds nuw %"class.icu_77::MaybeStackArray.6", ptr %9, i32 0, i32 2
  store i8 1, ptr %51, align 4, !tbaa !96
  br label %52

52:                                               ; preds = %46, %12
  %53 = load ptr, ptr %8, align 8, !tbaa !94
  store ptr %53, ptr %4, align 8
  call void @llvm.lifetime.end.p0(i64 8, ptr %8) #12
  br label %55

54:                                               ; preds = %3
  store ptr null, ptr %4, align 8
  br label %55

55:                                               ; preds = %54, %52
  %56 = load ptr, ptr %4, align 8
  ret ptr %56
}

; Function Attrs: mustprogress nounwind uwtable
define linkonce_odr noundef i32 @_ZNK6icu_7715MaybeStackArrayIlLi2EE11getCapacityEv(ptr noundef nonnull align 8 dereferenceable(32) %0) #0 comdat align 2 {
  %2 = alloca ptr, align 8
  store ptr %0, ptr %2, align 8, !tbaa !91
  %3 = load ptr, ptr %2, align 8
  %4 = getelementptr inbounds nuw %"class.icu_77::MaybeStackArray.6", ptr %3, i32 0, i32 1
  %5 = load i32, ptr %4, align 8, !tbaa !93
  ret i32 %5
}

; Function Attrs: mustprogress nounwind uwtable
define linkonce_odr noundef i32 @_ZNK6icu_7716MaybeStackVectorINS_7MeasureELi8EE6lengthEv(ptr noundef nonnull align 8 dereferenceable(88) %0) #0 comdat align 2 {
  %2 = alloca ptr, align 8
  store ptr %0, ptr %2, align 8, !tbaa !36
  %3 = load ptr, ptr %2, align 8
  %4 = getelementptr inbounds nuw %"class.icu_77::MemoryPool", ptr %3, i32 0, i32 0
  %5 = load i32, ptr %4, align 8, !tbaa !86
  ret i32 %5
}

; Function Attrs: mustprogress uwtable
define void @_Z24mixedMeasuresToMicros_77RKN6icu_7716MaybeStackVectorINS_7MeasureELi8EEEPNS_6number4impl15DecimalQuantityEPNS6_10MicroPropsE10UErrorCode(ptr noundef nonnull align 8 dereferenceable(88) %0, ptr noundef %1, ptr noundef %2, i32 noundef %3) #1 {
  %5 = alloca ptr, align 8
  %6 = alloca ptr, align 8
  %7 = alloca ptr, align 8
  %8 = alloca i32, align 4
  %9 = alloca i32, align 4
  %10 = alloca i32, align 4
  store ptr %0, ptr %5, align 8, !tbaa !36
  store ptr %1, ptr %6, align 8, !tbaa !38
  store ptr %2, ptr %7, align 8, !tbaa !40
  store i32 %3, ptr %8, align 4, !tbaa !15
  %11 = load ptr, ptr %5, align 8, !tbaa !36
  %12 = call noundef i32 @_ZNK6icu_7716MaybeStackVectorINS_7MeasureELi8EE6lengthEv(ptr noundef nonnull align 8 dereferenceable(88) %11)
  %13 = load ptr, ptr %7, align 8, !tbaa !40
  %14 = getelementptr inbounds nuw %"struct.icu_77::number::impl::MicroProps", ptr %13, i32 0, i32 16
  store i32 %12, ptr %14, align 4, !tbaa !42
  %15 = load ptr, ptr %7, align 8, !tbaa !40
  %16 = getelementptr inbounds nuw %"struct.icu_77::number::impl::MicroProps", ptr %15, i32 0, i32 14
  %17 = call noundef i32 @_ZNK6icu_7715MaybeStackArrayIlLi2EE11getCapacityEv(ptr noundef nonnull align 8 dereferenceable(32) %16)
  %18 = load ptr, ptr %7, align 8, !tbaa !40
  %19 = getelementptr inbounds nuw %"struct.icu_77::number::impl::MicroProps", ptr %18, i32 0, i32 16
  %20 = load i32, ptr %19, align 4, !tbaa !42
  %21 = icmp slt i32 %17, %20
  br i1 %21, label %22, label %32

22:                                               ; preds = %4
  %23 = load ptr, ptr %7, align 8, !tbaa !40
  %24 = getelementptr inbounds nuw %"struct.icu_77::number::impl::MicroProps", ptr %23, i32 0, i32 14
  %25 = load ptr, ptr %7, align 8, !tbaa !40
  %26 = getelementptr inbounds nuw %"struct.icu_77::number::impl::MicroProps", ptr %25, i32 0, i32 16
  %27 = load i32, ptr %26, align 4, !tbaa !42
  %28 = call noundef ptr @_ZN6icu_7715MaybeStackArrayIlLi2EE6resizeEii(ptr noundef nonnull align 8 dereferenceable(32) %24, i32 noundef %27, i32 noundef 0)
  %29 = icmp eq ptr %28, null
  br i1 %29, label %30, label %31

30:                                               ; preds = %22
  store i32 7, ptr %8, align 4, !tbaa !15
  br label %89

31:                                               ; preds = %22
  br label %32

32:                                               ; preds = %31, %4
  call void @llvm.lifetime.start.p0(i64 4, ptr %9) #12
  store i32 0, ptr %9, align 4, !tbaa !14
  br label %33

33:                                               ; preds = %78, %32
  %34 = load i32, ptr %9, align 4, !tbaa !14
  %35 = load ptr, ptr %7, align 8, !tbaa !40
  %36 = getelementptr inbounds nuw %"struct.icu_77::number::impl::MicroProps", ptr %35, i32 0, i32 16
  %37 = load i32, ptr %36, align 4, !tbaa !42
  %38 = icmp slt i32 %34, %37
  br i1 %38, label %40, label %39

39:                                               ; preds = %33
  store i32 2, ptr %10, align 4
  br label %81

40:                                               ; preds = %33
  %41 = load ptr, ptr %5, align 8, !tbaa !36
  %42 = load i32, ptr %9, align 4, !tbaa !14
  %43 = sext i32 %42 to i64
  %44 = call noundef ptr @_ZNK6icu_7716MaybeStackVectorINS_7MeasureELi8EEixEl(ptr noundef nonnull align 8 dereferenceable(88) %41, i64 noundef %43)
  %45 = call noundef nonnull align 8 dereferenceable(112) ptr @_ZNK6icu_777Measure9getNumberEv(ptr noundef nonnull align 8 dereferenceable(128) %44)
  %46 = call noundef i32 @_ZNK6icu_7711Formattable7getTypeEv(ptr noundef nonnull align 8 dereferenceable(112) %45)
  switch i32 %46, label %71 [
    i32 5, label %47
    i32 1, label %59
  ]

47:                                               ; preds = %40
  %48 = load ptr, ptr %5, align 8, !tbaa !36
  %49 = load i32, ptr %9, align 4, !tbaa !14
  %50 = sext i32 %49 to i64
  %51 = call noundef ptr @_ZNK6icu_7716MaybeStackVectorINS_7MeasureELi8EEixEl(ptr noundef nonnull align 8 dereferenceable(88) %48, i64 noundef %50)
  %52 = call noundef nonnull align 8 dereferenceable(112) ptr @_ZNK6icu_777Measure9getNumberEv(ptr noundef nonnull align 8 dereferenceable(128) %51)
  %53 = call noundef i64 @_ZNK6icu_7711Formattable8getInt64Ev(ptr noundef nonnull align 8 dereferenceable(112) %52)
  %54 = load ptr, ptr %7, align 8, !tbaa !40
  %55 = getelementptr inbounds nuw %"struct.icu_77::number::impl::MicroProps", ptr %54, i32 0, i32 14
  %56 = load i32, ptr %9, align 4, !tbaa !14
  %57 = sext i32 %56 to i64
  %58 = call noundef nonnull align 8 dereferenceable(8) ptr @_ZN6icu_7715MaybeStackArrayIlLi2EEixEl(ptr noundef nonnull align 8 dereferenceable(32) %55, i64 noundef %57)
  store i64 %53, ptr %58, align 8, !tbaa !18
  br label %72

59:                                               ; preds = %40
  %60 = load ptr, ptr %6, align 8, !tbaa !38
  %61 = load ptr, ptr %5, align 8, !tbaa !36
  %62 = load i32, ptr %9, align 4, !tbaa !14
  %63 = sext i32 %62 to i64
  %64 = call noundef ptr @_ZNK6icu_7716MaybeStackVectorINS_7MeasureELi8EEixEl(ptr noundef nonnull align 8 dereferenceable(88) %61, i64 noundef %63)
  %65 = call noundef nonnull align 8 dereferenceable(112) ptr @_ZNK6icu_777Measure9getNumberEv(ptr noundef nonnull align 8 dereferenceable(128) %64)
  %66 = call noundef double @_ZNK6icu_7711Formattable9getDoubleEv(ptr noundef nonnull align 8 dereferenceable(112) %65)
  %67 = call noundef nonnull align 8 dereferenceable(66) ptr @_ZN6icu_776number4impl15DecimalQuantity11setToDoubleEd(ptr noundef nonnull align 8 dereferenceable(66) %60, double noundef %66)
  %68 = load i32, ptr %9, align 4, !tbaa !14
  %69 = load ptr, ptr %7, align 8, !tbaa !40
  %70 = getelementptr inbounds nuw %"struct.icu_77::number::impl::MicroProps", ptr %69, i32 0, i32 15
  store i32 %68, ptr %70, align 8, !tbaa !83
  br label %72

71:                                               ; preds = %40
  call void @abort() #14
  unreachable

72:                                               ; preds = %59, %47
  %73 = load i32, ptr %8, align 4, !tbaa !15
  %74 = call noundef signext i8 @_ZL9U_FAILURE10UErrorCode(i32 noundef %73)
  %75 = icmp ne i8 %74, 0
  br i1 %75, label %76, label %77

76:                                               ; preds = %72
  store i32 1, ptr %10, align 4
  br label %81

77:                                               ; preds = %72
  br label %78

78:                                               ; preds = %77
  %79 = load i32, ptr %9, align 4, !tbaa !14
  %80 = add nsw i32 %79, 1
  store i32 %80, ptr %9, align 4, !tbaa !14
  br label %33, !llvm.loop !84

81:                                               ; preds = %76, %39
  call void @llvm.lifetime.end.p0(i64 4, ptr %9) #12
  %82 = load i32, ptr %10, align 4
  switch i32 %82, label %90 [
    i32 2, label %83
    i32 1, label %89
  ]

83:                                               ; preds = %81
  %84 = load ptr, ptr %7, align 8, !tbaa !40
  %85 = getelementptr inbounds nuw %"struct.icu_77::number::impl::MicroProps", ptr %84, i32 0, i32 15
  %86 = load i32, ptr %85, align 8, !tbaa !83
  %87 = icmp slt i32 %86, 0
  br i1 %87, label %88, label %89

88:                                               ; preds = %83
  store i32 5, ptr %8, align 4, !tbaa !15
  br label %89

89:                                               ; preds = %30, %81, %88, %83
  ret void

90:                                               ; preds = %81
  unreachable
}