; Function Attrs: mustprogress uwtable
define void @_Z24mixedMeasuresToMicros_77RKN6icu_7716MaybeStackVectorINS_7MeasureELi8EEEPNS_6number4impl15DecimalQuantityEPNS6_10MicroPropsE10UErrorCode(ptr noundef nonnull readonly align 8 captures(none) dereferenceable(88) %0, ptr noundef %1, ptr noundef captures(none) initializes((484, 488)) %2, i32 noundef %3) local_unnamed_addr #1 {
  %5 = load i32, ptr %0, align 8, !tbaa !21
  %6 = getelementptr inbounds nuw i8, ptr %2, i64 484
  store i32 %5, ptr %6, align 4, !tbaa !26
  %7 = getelementptr inbounds nuw i8, ptr %2, i64 440
  %8 = getelementptr inbounds nuw i8, ptr %2, i64 448
  %9 = load i32, ptr %8, align 8, !tbaa !67
  %10 = icmp slt i32 %9, %5
  br i1 %10, label %11, label %22

11:                                               ; preds = %4
  %12 = icmp sgt i32 %5, 0
  br i1 %12, label %13, label %_ZN6icu_7715MaybeStackArrayIlLi2EE6resizeEii.exit.thread

13:                                               ; preds = %11
  %14 = zext nneg i32 %5 to i64
  %15 = shl nuw nsw i64 %14, 3
  %16 = tail call noalias ptr @uprv_malloc_77(i64 noundef %15) #16
  %.not.i = icmp eq ptr %16, null
  br i1 %.not.i, label %_ZN6icu_7715MaybeStackArrayIlLi2EE6resizeEii.exit.thread, label %17

17:                                               ; preds = %13
  %18 = getelementptr inbounds nuw i8, ptr %2, i64 452
  %19 = load i8, ptr %18, align 4, !tbaa !68
  %.not.i.i = icmp eq i8 %19, 0
  br i1 %.not.i.i, label %_ZN6icu_7715MaybeStackArrayIlLi2EE6resizeEii.exit, label %20

20:                                               ; preds = %17
  %21 = load ptr, ptr %7, align 8, !tbaa !69
  tail call void @uprv_free_77(ptr noundef %21)
  br label %_ZN6icu_7715MaybeStackArrayIlLi2EE6resizeEii.exit

_ZN6icu_7715MaybeStackArrayIlLi2EE6resizeEii.exit: ; preds = %17, %20
  store ptr %16, ptr %7, align 8, !tbaa !69
  store i32 %5, ptr %8, align 8, !tbaa !67
  store i8 1, ptr %18, align 4, !tbaa !68
  %.pre = load i32, ptr %6, align 4, !tbaa !26
  br label %22

22:                                               ; preds = %_ZN6icu_7715MaybeStackArrayIlLi2EE6resizeEii.exit, %4
  %23 = phi i32 [ %.pre, %_ZN6icu_7715MaybeStackArrayIlLi2EE6resizeEii.exit ], [ %5, %4 ]
  %24 = icmp sgt i32 %23, 0
  br i1 %24, label %.lr.ph, label %_ZN6icu_7715MaybeStackArrayIlLi2EE6resizeEii.exit.thread

.lr.ph:                                           ; preds = %22
  %25 = getelementptr inbounds nuw i8, ptr %0, i64 8
  %26 = getelementptr inbounds nuw i8, ptr %2, i64 480
  %27 = icmp slt i32 %3, 1
  br i1 %27, label %.lr.ph.split.us, label %.lr.ph.split

.lr.ph.split.us:                                  ; preds = %.lr.ph, %49
  %indvars.iv = phi i64 [ %indvars.iv.next, %49 ], [ 0, %.lr.ph ]
  %28 = load ptr, ptr %25, align 8, !tbaa !70
  %29 = getelementptr inbounds nuw ptr, ptr %28, i64 %indvars.iv
  %30 = load ptr, ptr %29, align 8, !tbaa !71
  %31 = getelementptr inbounds nuw i8, ptr %30, i64 8
  %32 = tail call noundef i32 @_ZNK6icu_7711Formattable7getTypeEv(ptr noundef nonnull align 8 dereferenceable(112) %31)
  switch i32 %32, label %.split.us [
    i32 5, label %41
    i32 1, label %33
  ]

33:                                               ; preds = %.lr.ph.split.us
  %34 = load ptr, ptr %25, align 8, !tbaa !70
  %35 = getelementptr inbounds nuw ptr, ptr %34, i64 %indvars.iv
  %36 = load ptr, ptr %35, align 8, !tbaa !71
  %37 = getelementptr inbounds nuw i8, ptr %36, i64 16
  %38 = load double, ptr %37, align 8, !tbaa !20
  %39 = tail call noundef nonnull align 8 dereferenceable(66) ptr @_ZN6icu_776number4impl15DecimalQuantity11setToDoubleEd(ptr noundef nonnull align 8 dereferenceable(66) %1, double noundef %38)
  %40 = trunc nuw nsw i64 %indvars.iv to i32
  store i32 %40, ptr %26, align 8, !tbaa !73
  br label %49

41:                                               ; preds = %.lr.ph.split.us
  %42 = load ptr, ptr %25, align 8, !tbaa !70
  %43 = getelementptr inbounds nuw ptr, ptr %42, i64 %indvars.iv
  %44 = load ptr, ptr %43, align 8, !tbaa !71
  %45 = getelementptr inbounds nuw i8, ptr %44, i64 16
  %46 = load i64, ptr %45, align 8, !tbaa !20
  %47 = load ptr, ptr %7, align 8, !tbaa !69
  %48 = getelementptr inbounds nuw i64, ptr %47, i64 %indvars.iv
  store i64 %46, ptr %48, align 8, !tbaa !74
  br label %49

49:                                               ; preds = %41, %33
  %indvars.iv.next = add nuw nsw i64 %indvars.iv, 1
  %50 = load i32, ptr %6, align 4, !tbaa !26
  %51 = sext i32 %50 to i64
  %52 = icmp slt i64 %indvars.iv.next, %51
  br i1 %52, label %.lr.ph.split.us, label %_ZN6icu_7715MaybeStackArrayIlLi2EE6resizeEii.exit.thread, !llvm.loop !76

.lr.ph.split:                                     ; preds = %.lr.ph
  %53 = load ptr, ptr %25, align 8, !tbaa !70
  %54 = load ptr, ptr %53, align 8, !tbaa !71
  %55 = getelementptr inbounds nuw i8, ptr %54, i64 8
  %56 = tail call noundef i32 @_ZNK6icu_7711Formattable7getTypeEv(ptr noundef nonnull align 8 dereferenceable(112) %55)
  switch i32 %56, label %.split.us [
    i32 5, label %57
    i32 1, label %63
  ]

57:                                               ; preds = %.lr.ph.split
  %58 = load ptr, ptr %25, align 8, !tbaa !70
  %59 = load ptr, ptr %58, align 8, !tbaa !71
  %60 = getelementptr inbounds nuw i8, ptr %59, i64 16
  %61 = load i64, ptr %60, align 8, !tbaa !20
  %62 = load ptr, ptr %7, align 8, !tbaa !69
  store i64 %61, ptr %62, align 8, !tbaa !74
  br label %_ZN6icu_7715MaybeStackArrayIlLi2EE6resizeEii.exit.thread

63:                                               ; preds = %.lr.ph.split
  %64 = load ptr, ptr %25, align 8, !tbaa !70
  %65 = load ptr, ptr %64, align 8, !tbaa !71
  %66 = getelementptr inbounds nuw i8, ptr %65, i64 16
  %67 = load double, ptr %66, align 8, !tbaa !20
  %68 = tail call noundef nonnull align 8 dereferenceable(66) ptr @_ZN6icu_776number4impl15DecimalQuantity11setToDoubleEd(ptr noundef nonnull align 8 dereferenceable(66) %1, double noundef %67)
  store i32 0, ptr %26, align 8, !tbaa !73
  br label %_ZN6icu_7715MaybeStackArrayIlLi2EE6resizeEii.exit.thread

.split.us:                                        ; preds = %.lr.ph.split.us, %.lr.ph.split
  tail call void @abort() #17
  unreachable

_ZN6icu_7715MaybeStackArrayIlLi2EE6resizeEii.exit.thread: ; preds = %49, %57, %63, %22, %11, %13
  ret void
}